; Function Attrs: mustprogress uwtable
define void @_ZN32pxrInternal_v0_24__pxrReserved__8TsSplineC2Ev(ptr noundef nonnull align 8 dereferenceable(16) %0) unnamed_addr #3 align 2 personality ptr @__gxx_personality_v0 {
  %2 = tail call noalias noundef nonnull dereferenceable(136) ptr @_Znwm(i64 noundef 136) #19
  invoke void @_ZN32pxrInternal_v0_24__pxrReserved__18TsSpline_KeyFramesC1Ev(ptr noundef nonnull align 8 dereferenceable(136) %2)
          to label %3 unwind label %5

3:                                                ; preds = %1
  store ptr %2, ptr %0, align 8
  %4 = getelementptr inbounds nuw i8, ptr %0, i64 8
  tail call void @_ZNSt14__shared_countILN9__gnu_cxx12_Lock_policyE2EEC2IPN32pxrInternal_v0_24__pxrReserved__18TsSpline_KeyFramesEEET_(ptr noundef nonnull align 8 dereferenceable(8) %4, ptr noundef nonnull %2)
  ret void

5:                                                ; preds = %1
  %6 = landingpad { ptr, i32 }
          cleanup
  tail call void @_ZdlPvm(ptr noundef nonnull %2, i64 noundef 136) #20
  resume { ptr, i32 } %6
}